; Function Attrs: nounwind sspstrong uwtable
define internal i64 @rb_zlib_adler32_combine(i64 %0, i64 noundef %1, i64 noundef %2, i64 noundef %3) #0 {
  %5 = and i64 %1, 1
  %.not.i = icmp eq i64 %5, 0
  br i1 %.not.i, label %8, label %6

6:                                                ; preds = %4
  %7 = ashr i64 %1, 1
  br label %rb_num2ulong_inline.exit

8:                                                ; preds = %4
  %9 = tail call i64 @rb_num2ulong(i64 noundef %1) #18
  br label %rb_num2ulong_inline.exit

rb_num2ulong_inline.exit:                         ; preds = %6, %8
  %.0.i = phi i64 [ %7, %6 ], [ %9, %8 ]
  %10 = and i64 %2, 1
  %.not.i3 = icmp eq i64 %10, 0
  br i1 %.not.i3, label %13, label %11

11:                                               ; preds = %rb_num2ulong_inline.exit
  %12 = ashr i64 %2, 1
  br label %rb_num2ulong_inline.exit5

13:                                               ; preds = %rb_num2ulong_inline.exit
  %14 = tail call i64 @rb_num2ulong(i64 noundef %2) #18
  br label %rb_num2ulong_inline.exit5

rb_num2ulong_inline.exit5:                        ; preds = %11, %13
  %.0.i4 = phi i64 [ %12, %11 ], [ %14, %13 ]
  %15 = and i64 %3, 1
  %.not.i6 = icmp eq i64 %15, 0
  br i1 %.not.i6, label %18, label %16

16:                                               ; preds = %rb_num2ulong_inline.exit5
  %17 = ashr i64 %3, 1
  br label %rb_num2long_inline.exit

18:                                               ; preds = %rb_num2ulong_inline.exit5
  %19 = tail call i64 @rb_num2long(i64 noundef %3) #18
  br label %rb_num2long_inline.exit

rb_num2long_inline.exit:                          ; preds = %16, %18
  %.0.i7 = phi i64 [ %17, %16 ], [ %19, %18 ]
  %20 = tail call i64 @adler32_combine(i64 noundef %.0.i, i64 noundef %.0.i4, i64 noundef %.0.i7) #18
  %21 = icmp ult i64 %20, 4611686018427387904
  br i1 %21, label %22, label %25

22:                                               ; preds = %rb_num2long_inline.exit
  %23 = shl nuw nsw i64 %20, 1
  %24 = or disjoint i64 %23, 1
  br label %rb_ulong2num_inline.exit

25:                                               ; preds = %rb_num2long_inline.exit
  %26 = tail call i64 @rb_uint2big(i64 noundef %20) #18
  br label %rb_ulong2num_inline.exit

rb_ulong2num_inline.exit:                         ; preds = %22, %25
  %.0.i8 = phi i64 [ %24, %22 ], [ %26, %25 ]
  ret i64 %.0.i8
}